target datalayout = "e-m:e-p270:32:32-p271:32:32-p272:64:64-i64:64-i128:128-f80:128-n8:16:32:64-S128"
target triple = "x86_64-pc-linux-gnu"

%"class.ncnn::Mat" = type { ptr, ptr, i64, i32, ptr, i32, i32, i32, i32, i32, i64 }

; Function Attrs: noreturn nounwind uwtable
define linkonce_odr hidden void @__clang_call_terminate(ptr noundef %0) #8 comdat {
  %2 = call ptr @__cxa_begin_catch(ptr %0) #15
  call void @_ZSt9terminatev() #16
  unreachable
}

; Function Attrs: mustprogress uwtable
define hidden ptr @ncnn_mat_get_channel_data(ptr noundef %0, i32 noundef %1) #1 personality ptr @__gxx_personality_v0 {
  %3 = alloca ptr, align 8
  %4 = alloca ptr, align 8
  %5 = alloca ptr, align 8
  %6 = alloca i32, align 4
  %7 = alloca i32, align 4
  %8 = alloca ptr, align 8
  %9 = alloca i32, align 4
  %10 = alloca i32, align 4
  %11 = alloca i64, align 8
  %12 = alloca i32, align 4
  %13 = alloca ptr, align 8
  %14 = alloca ptr, align 8
  %15 = alloca i32, align 4
  %16 = alloca i32, align 4
  %17 = alloca i32, align 4
  %18 = alloca ptr, align 8
  %19 = alloca i64, align 8
  %20 = alloca i32, align 4
  %21 = alloca ptr, align 8
  %22 = alloca ptr, align 8
  %23 = alloca ptr, align 8
  %24 = alloca i32, align 4
  %25 = alloca i1, align 1
  %26 = alloca ptr, align 8
  %27 = alloca ptr, align 8
  %28 = alloca i32, align 4
  %29 = alloca %"class.ncnn::Mat", align 8
  store ptr %0, ptr %27, align 8
  store i32 %1, ptr %28, align 4
  %30 = load ptr, ptr %27, align 8
  %31 = load i32, ptr %28, align 4
  call void @llvm.experimental.noalias.scope.decl(metadata !6)
  store ptr %29, ptr %22, align 8, !noalias !6
  store ptr %30, ptr %23, align 8, !noalias !6
  store i32 %31, ptr %24, align 4, !noalias !6
  %32 = load ptr, ptr %23, align 8, !noalias !6
  store i1 false, ptr %25, align 1, !noalias !6
  %33 = getelementptr inbounds nuw %"class.ncnn::Mat", ptr %32, i32 0, i32 6
  %34 = load i32, ptr %33, align 4
  %35 = getelementptr inbounds nuw %"class.ncnn::Mat", ptr %32, i32 0, i32 7
  %36 = load i32, ptr %35, align 8
  %37 = getelementptr inbounds nuw %"class.ncnn::Mat", ptr %32, i32 0, i32 8
  %38 = load i32, ptr %37, align 4
  %39 = load ptr, ptr %32, align 8
  %40 = getelementptr inbounds nuw %"class.ncnn::Mat", ptr %32, i32 0, i32 10
  %41 = load i64, ptr %40, align 8
  %42 = load i32, ptr %24, align 4, !noalias !6
  %43 = sext i32 %42 to i64
  %44 = mul i64 %41, %43
  %45 = getelementptr inbounds nuw %"class.ncnn::Mat", ptr %32, i32 0, i32 2
  %46 = load i64, ptr %45, align 8
  %47 = mul i64 %44, %46
  %48 = getelementptr inbounds i8, ptr %39, i64 %47
  %49 = getelementptr inbounds nuw %"class.ncnn::Mat", ptr %32, i32 0, i32 2
  %50 = load i64, ptr %49, align 8
  %51 = getelementptr inbounds nuw %"class.ncnn::Mat", ptr %32, i32 0, i32 3
  %52 = load i32, ptr %51, align 8
  %53 = getelementptr inbounds nuw %"class.ncnn::Mat", ptr %32, i32 0, i32 4
  %54 = load ptr, ptr %53, align 8
  store ptr %29, ptr %14, align 8, !noalias !6
  store i32 %34, ptr %15, align 4, !noalias !6
  store i32 %36, ptr %16, align 4, !noalias !6
  store i32 %38, ptr %17, align 4, !noalias !6
  store ptr %48, ptr %18, align 8, !noalias !6
  store i64 %50, ptr %19, align 8, !noalias !6
  store i32 %52, ptr %20, align 4, !noalias !6
  store ptr %54, ptr %21, align 8, !noalias !6
  %55 = load ptr, ptr %14, align 8, !noalias !6
  %56 = load ptr, ptr %18, align 8, !noalias !6
  store ptr %56, ptr %55, align 8
  %57 = getelementptr inbounds nuw %"class.ncnn::Mat", ptr %55, i32 0, i32 1
  store ptr null, ptr %57, align 8
  %58 = getelementptr inbounds nuw %"class.ncnn::Mat", ptr %55, i32 0, i32 2
  %59 = load i64, ptr %19, align 8, !noalias !6
  store i64 %59, ptr %58, align 8
  %60 = getelementptr inbounds nuw %"class.ncnn::Mat", ptr %55, i32 0, i32 3
  %61 = load i32, ptr %20, align 4, !noalias !6
  store i32 %61, ptr %60, align 8
  %62 = getelementptr inbounds nuw %"class.ncnn::Mat", ptr %55, i32 0, i32 4
  %63 = load ptr, ptr %21, align 8, !noalias !6
  store ptr %63, ptr %62, align 8
  %64 = getelementptr inbounds nuw %"class.ncnn::Mat", ptr %55, i32 0, i32 5
  store i32 3, ptr %64, align 8
  %65 = getelementptr inbounds nuw %"class.ncnn::Mat", ptr %55, i32 0, i32 6
  %66 = load i32, ptr %15, align 4, !noalias !6
  store i32 %66, ptr %65, align 4
  %67 = getelementptr inbounds nuw %"class.ncnn::Mat", ptr %55, i32 0, i32 7
  %68 = load i32, ptr %16, align 4, !noalias !6
  store i32 %68, ptr %67, align 8
  %69 = getelementptr inbounds nuw %"class.ncnn::Mat", ptr %55, i32 0, i32 8
  store i32 1, ptr %69, align 4
  %70 = getelementptr inbounds nuw %"class.ncnn::Mat", ptr %55, i32 0, i32 9
  %71 = load i32, ptr %17, align 4, !noalias !6
  store i32 %71, ptr %70, align 8
  %72 = getelementptr inbounds nuw %"class.ncnn::Mat", ptr %55, i32 0, i32 6
  %73 = load i32, ptr %72, align 4
  %74 = sext i32 %73 to i64
  %75 = getelementptr inbounds nuw %"class.ncnn::Mat", ptr %55, i32 0, i32 7
  %76 = load i32, ptr %75, align 8
  %77 = sext i32 %76 to i64
  %78 = mul i64 %74, %77
  %79 = getelementptr inbounds nuw %"class.ncnn::Mat", ptr %55, i32 0, i32 2
  %80 = load i64, ptr %79, align 8
  %81 = mul i64 %78, %80
  store i64 %81, ptr %11, align 8
  store i32 16, ptr %12, align 4
  %82 = load i64, ptr %11, align 8
  %83 = load i32, ptr %12, align 4
  %84 = sext i32 %83 to i64
  %85 = add i64 %82, %84
  %86 = sub i64 %85, 1
  %87 = load i32, ptr %12, align 4
  %88 = sub nsw i32 0, %87
  %89 = sext i32 %88 to i64
  %90 = and i64 %86, %89
  %91 = getelementptr inbounds nuw %"class.ncnn::Mat", ptr %55, i32 0, i32 2
  %92 = load i64, ptr %91, align 8
  %93 = udiv i64 %90, %92
  %94 = getelementptr inbounds nuw %"class.ncnn::Mat", ptr %55, i32 0, i32 10
  store i64 %93, ptr %94, align 8
  %95 = getelementptr inbounds nuw %"class.ncnn::Mat", ptr %32, i32 0, i32 5
  %96 = load i32, ptr %95, align 8
  %97 = sub nsw i32 %96, 1
  %98 = getelementptr inbounds nuw %"class.ncnn::Mat", ptr %29, i32 0, i32 5
  store i32 %97, ptr %98, align 8, !alias.scope !6
  %99 = getelementptr inbounds nuw %"class.ncnn::Mat", ptr %32, i32 0, i32 5
  %100 = load i32, ptr %99, align 8
  %101 = icmp eq i32 %100, 4
  br i1 %101, label %102, label %111

102:                                              ; preds = %2
  %103 = getelementptr inbounds nuw %"class.ncnn::Mat", ptr %32, i32 0, i32 6
  %104 = load i32, ptr %103, align 4
  %105 = sext i32 %104 to i64
  %106 = getelementptr inbounds nuw %"class.ncnn::Mat", ptr %32, i32 0, i32 7
  %107 = load i32, ptr %106, align 8
  %108 = sext i32 %107 to i64
  %109 = mul i64 %105, %108
  %110 = getelementptr inbounds nuw %"class.ncnn::Mat", ptr %29, i32 0, i32 10
  store i64 %109, ptr %110, align 8, !alias.scope !6
  br label %111

111:                                              ; preds = %102, %2
  store i1 true, ptr %25, align 1, !noalias !6
  %112 = load i1, ptr %25, align 1, !noalias !6
  br i1 %112, label %160, label %113

113:                                              ; preds = %111
  store ptr %29, ptr %13, align 8, !noalias !6
  %114 = load ptr, ptr %13, align 8, !noalias !6
  store ptr %114, ptr %8, align 8
  %115 = load ptr, ptr %8, align 8
  %116 = getelementptr inbounds nuw %"class.ncnn::Mat", ptr %115, i32 0, i32 1
  %117 = load ptr, ptr %116, align 8
  %118 = icmp ne ptr %117, null
  br i1 %118, label %119, label %146

119:                                              ; preds = %113
  %120 = getelementptr inbounds nuw %"class.ncnn::Mat", ptr %115, i32 0, i32 1
  %121 = load ptr, ptr %120, align 8
  store i32 -1, ptr %9, align 4
  %122 = load i32, ptr %9, align 4
  %123 = atomicrmw add ptr %121, i32 %122 acq_rel, align 4
  store i32 %123, ptr %10, align 4
  %124 = load i32, ptr %10, align 4
  %125 = icmp eq i32 %124, 1
  br i1 %125, label %126, label %146

126:                                              ; preds = %119
  %127 = getelementptr inbounds nuw %"class.ncnn::Mat", ptr %115, i32 0, i32 4
  %128 = load ptr, ptr %127, align 8
  %129 = icmp ne ptr %128, null
  br i1 %129, label %130, label %138

130:                                              ; preds = %126
  %131 = getelementptr inbounds nuw %"class.ncnn::Mat", ptr %115, i32 0, i32 4
  %132 = load ptr, ptr %131, align 8
  %133 = load ptr, ptr %115, align 8
  %134 = load ptr, ptr %132, align 8
  %135 = getelementptr inbounds ptr, ptr %134, i64 3
  %136 = load ptr, ptr %135, align 8
  invoke void %136(ptr noundef nonnull align 8 dereferenceable(8) %132, ptr noundef %133)
          to label %137 unwind label %156

137:                                              ; preds = %130
  br label %145

138:                                              ; preds = %126
  %139 = load ptr, ptr %115, align 8
  store ptr %139, ptr %3, align 8
  %140 = load ptr, ptr %3, align 8
  %141 = icmp ne ptr %140, null
  br i1 %141, label %142, label %144

142:                                              ; preds = %138
  %143 = load ptr, ptr %3, align 8
  call void @free(ptr noundef %143) #15
  br label %144

144:                                              ; preds = %142, %138
  br label %145

145:                                              ; preds = %144, %137
  br label %146

146:                                              ; preds = %145, %119, %113
  store ptr null, ptr %115, align 8
  %147 = getelementptr inbounds nuw %"class.ncnn::Mat", ptr %115, i32 0, i32 2
  store i64 0, ptr %147, align 8
  %148 = getelementptr inbounds nuw %"class.ncnn::Mat", ptr %115, i32 0, i32 3
  store i32 0, ptr %148, align 8
  %149 = getelementptr inbounds nuw %"class.ncnn::Mat", ptr %115, i32 0, i32 5
  store i32 0, ptr %149, align 8
  %150 = getelementptr inbounds nuw %"class.ncnn::Mat", ptr %115, i32 0, i32 6
  store i32 0, ptr %150, align 4
  %151 = getelementptr inbounds nuw %"class.ncnn::Mat", ptr %115, i32 0, i32 7
  store i32 0, ptr %151, align 8
  %152 = getelementptr inbounds nuw %"class.ncnn::Mat", ptr %115, i32 0, i32 8
  store i32 0, ptr %152, align 4
  %153 = getelementptr inbounds nuw %"class.ncnn::Mat", ptr %115, i32 0, i32 9
  store i32 0, ptr %153, align 8
  %154 = getelementptr inbounds nuw %"class.ncnn::Mat", ptr %115, i32 0, i32 10
  store i64 0, ptr %154, align 8
  %155 = getelementptr inbounds nuw %"class.ncnn::Mat", ptr %115, i32 0, i32 1
  store ptr null, ptr %155, align 8
  br label %159

156:                                              ; preds = %130
  %157 = landingpad { ptr, i32 }
          catch ptr null
  %158 = extractvalue { ptr, i32 } %157, 0
  call void @__clang_call_terminate(ptr %158) #16
  unreachable

159:                                              ; preds = %146
  br label %160

160:                                              ; preds = %159, %111
  %161 = getelementptr inbounds nuw %"class.ncnn::Mat", ptr %29, i32 0, i32 0
  %162 = load ptr, ptr %161, align 8
  store ptr %29, ptr %26, align 8
  %163 = load ptr, ptr %26, align 8
  store ptr %163, ptr %5, align 8
  %164 = load ptr, ptr %5, align 8
  %165 = getelementptr inbounds nuw %"class.ncnn::Mat", ptr %164, i32 0, i32 1
  %166 = load ptr, ptr %165, align 8
  %167 = icmp ne ptr %166, null
  br i1 %167, label %168, label %195

168:                                              ; preds = %160
  %169 = getelementptr inbounds nuw %"class.ncnn::Mat", ptr %164, i32 0, i32 1
  %170 = load ptr, ptr %169, align 8
  store i32 -1, ptr %6, align 4
  %171 = load i32, ptr %6, align 4
  %172 = atomicrmw add ptr %170, i32 %171 acq_rel, align 4
  store i32 %172, ptr %7, align 4
  %173 = load i32, ptr %7, align 4
  %174 = icmp eq i32 %173, 1
  br i1 %174, label %175, label %195

175:                                              ; preds = %168
  %176 = getelementptr inbounds nuw %"class.ncnn::Mat", ptr %164, i32 0, i32 4
  %177 = load ptr, ptr %176, align 8
  %178 = icmp ne ptr %177, null
  br i1 %178, label %179, label %187

179:                                              ; preds = %175
  %180 = getelementptr inbounds nuw %"class.ncnn::Mat", ptr %164, i32 0, i32 4
  %181 = load ptr, ptr %180, align 8
  %182 = load ptr, ptr %164, align 8
  %183 = load ptr, ptr %181, align 8
  %184 = getelementptr inbounds ptr, ptr %183, i64 3
  %185 = load ptr, ptr %184, align 8
  invoke void %185(ptr noundef nonnull align 8 dereferenceable(8) %181, ptr noundef %182)
          to label %186 unwind label %205

186:                                              ; preds = %179
  br label %194

187:                                              ; preds = %175
  %188 = load ptr, ptr %164, align 8
  store ptr %188, ptr %4, align 8
  %189 = load ptr, ptr %4, align 8
  %190 = icmp ne ptr %189, null
  br i1 %190, label %191, label %193

191:                                              ; preds = %187
  %192 = load ptr, ptr %4, align 8
  call void @free(ptr noundef %192) #15
  br label %193

193:                                              ; preds = %191, %187
  br label %194

194:                                              ; preds = %193, %186
  br label %195

195:                                              ; preds = %194, %168, %160
  store ptr null, ptr %164, align 8
  %196 = getelementptr inbounds nuw %"class.ncnn::Mat", ptr %164, i32 0, i32 2
  store i64 0, ptr %196, align 8
  %197 = getelementptr inbounds nuw %"class.ncnn::Mat", ptr %164, i32 0, i32 3
  store i32 0, ptr %197, align 8
  %198 = getelementptr inbounds nuw %"class.ncnn::Mat", ptr %164, i32 0, i32 5
  store i32 0, ptr %198, align 8
  %199 = getelementptr inbounds nuw %"class.ncnn::Mat", ptr %164, i32 0, i32 6
  store i32 0, ptr %199, align 4
  %200 = getelementptr inbounds nuw %"class.ncnn::Mat", ptr %164, i32 0, i32 7
  store i32 0, ptr %200, align 8
  %201 = getelementptr inbounds nuw %"class.ncnn::Mat", ptr %164, i32 0, i32 8
  store i32 0, ptr %201, align 4
  %202 = getelementptr inbounds nuw %"class.ncnn::Mat", ptr %164, i32 0, i32 9
  store i32 0, ptr %202, align 8
  %203 = getelementptr inbounds nuw %"class.ncnn::Mat", ptr %164, i32 0, i32 10
  store i64 0, ptr %203, align 8
  %204 = getelementptr inbounds nuw %"class.ncnn::Mat", ptr %164, i32 0, i32 1
  store ptr null, ptr %204, align 8
  br label %208

205:                                              ; preds = %179
  %206 = landingpad { ptr, i32 }
          catch ptr null
  %207 = extractvalue { ptr, i32 } %206, 0
  call void @__clang_call_terminate(ptr %207) #16
  unreachable

208:                                              ; preds = %195
  ret ptr %162
}