; Function Attrs: mustprogress nofree norecurse nosync nounwind willreturn memory(argmem: read) uwtable
define hidden ptr @ncnn_mat_get_channel_data(ptr nocapture noundef readonly %0, i32 noundef %1) local_unnamed_addr #8 personality ptr @__gxx_personality_v0 {
  %3 = load ptr, ptr %0, align 8
  %4 = getelementptr inbounds nuw i8, ptr %0, i64 64
  %5 = load i64, ptr %4, align 8
  %6 = getelementptr inbounds nuw i8, ptr %0, i64 16
  %7 = load i64, ptr %6, align 8
  %8 = sext i32 %1 to i64
  %9 = mul i64 %5, %8
  %10 = mul i64 %9, %7
  %11 = getelementptr inbounds i8, ptr %3, i64 %10
  ret ptr %11
}